; Function Attrs: uwtable
define internal void @__cxx_global_array_dtor(ptr readnone captures(none) %0) #6 section ".text.startup" personality ptr @__gxx_personality_v0 {
  br label %2

2:                                                ; preds = %_ZZN32pxrInternal_v0_24__pxrReserved__L16_GetDefaultValueERKNSt7__cxx1112basic_stringIcSt11char_traitsIcESaIcEEERKNS_12VtDictionaryEPS5_EN8TypeInfoD2Ev.exit, %1
  %3 = phi ptr [ getelementptr inbounds nuw (i8, ptr @_ZZN32pxrInternal_v0_24__pxrReserved__L16_GetDefaultValueERKNSt7__cxx1112basic_stringIcSt11char_traitsIcESaIcEEERKNS_12VtDictionaryEPS5_E9typeInfos, i64 336), %1 ], [ %4, %_ZZN32pxrInternal_v0_24__pxrReserved__L16_GetDefaultValueERKNSt7__cxx1112basic_stringIcSt11char_traitsIcESaIcEEERKNS_12VtDictionaryEPS5_EN8TypeInfoD2Ev.exit ]
  %4 = getelementptr inbounds i8, ptr %3, i64 -56
  %5 = getelementptr inbounds i8, ptr %3, i64 -16
  %6 = load ptr, ptr %5, align 8
  %7 = ptrtoint ptr %6 to i64
  %.not.i.i.i = icmp eq ptr %6, null
  %8 = and i64 %7, 3
  %9 = icmp eq i64 %8, 3
  %or.cond.i.i.i = or i1 %.not.i.i.i, %9
  br i1 %or.cond.i.i.i, label %_ZZN32pxrInternal_v0_24__pxrReserved__L16_GetDefaultValueERKNSt7__cxx1112basic_stringIcSt11char_traitsIcESaIcEEERKNS_12VtDictionaryEPS5_EN8TypeInfoD2Ev.exit, label %10

10:                                               ; preds = %2
  %11 = getelementptr inbounds i8, ptr %3, i64 -24
  %12 = and i64 %7, -8
  %13 = inttoptr i64 %12 to ptr
  %14 = getelementptr inbounds nuw i8, ptr %13, i64 32
  %15 = load ptr, ptr %14, align 8
  invoke void %15(ptr noundef nonnull align 8 dereferenceable(16) %11)
          to label %_ZZN32pxrInternal_v0_24__pxrReserved__L16_GetDefaultValueERKNSt7__cxx1112basic_stringIcSt11char_traitsIcESaIcEEERKNS_12VtDictionaryEPS5_EN8TypeInfoD2Ev.exit unwind label %16

16:                                               ; preds = %10
  %17 = landingpad { ptr, i32 }
          catch ptr null
  %18 = extractvalue { ptr, i32 } %17, 0
  tail call void @__clang_call_terminate(ptr %18) #22
  unreachable

_ZZN32pxrInternal_v0_24__pxrReserved__L16_GetDefaultValueERKNSt7__cxx1112basic_stringIcSt11char_traitsIcESaIcEEERKNS_12VtDictionaryEPS5_EN8TypeInfoD2Ev.exit: ; preds = %2, %10
  store ptr null, ptr %5, align 8
  tail call void @_ZNSt7__cxx1112basic_stringIcSt11char_traitsIcESaIcEED1Ev(ptr noundef nonnull align 8 dereferenceable(56) %4) #24
  %19 = icmp eq ptr %4, @_ZZN32pxrInternal_v0_24__pxrReserved__L16_GetDefaultValueERKNSt7__cxx1112basic_stringIcSt11char_traitsIcESaIcEEERKNS_12VtDictionaryEPS5_E9typeInfos
  br i1 %19, label %20, label %2

20:                                               ; preds = %_ZZN32pxrInternal_v0_24__pxrReserved__L16_GetDefaultValueERKNSt7__cxx1112basic_stringIcSt11char_traitsIcESaIcEEERKNS_12VtDictionaryEPS5_EN8TypeInfoD2Ev.exit
  ret void
}